target datalayout = "e-m:e-p270:32:32-p271:32:32-p272:64:64-i64:64-i128:128-f80:128-n8:16:32:64-S128"
target triple = "x86_64-pc-linux-gnu"

%struct.settings = type { i64, i32, i32, i32, ptr, i32, i32, i32, ptr, ptr, i32, double, i32, i32, i32, i8, i32, i32, i8, i32, i32, i32, i32, i32, i32, i8, i8, i8, i8, i8, i8, i8, i32, i32, double, double, i32, i32, i8, i32, i8, i8, ptr, i32, i32, i32, i32, double, double, i32, i8, i32, i32, i32, i32, i32, i8, i8, i8, ptr, i32, i32, i32, i32, i32, i32, i32, i32, i32, i32, double, i8, i32, i32, ptr, i32 }
%struct.conn = type { ptr, i32, i8, i8, i8, i8, i8, i8, i8, i8, ptr, i32, i32, i32, %struct.event, i16, i16, ptr, ptr, i32, i32, ptr, ptr, ptr, i32, ptr, i32, i32, i32, i32, i32, i32, i32, %struct.sockaddr_in6, i32, i8, %struct.anon.8, %union.protocol_binary_request_header, i64, i64, i16, i32, i32, ptr, ptr, ptr, ptr, ptr, ptr }
%struct.event = type { %struct.event_callback, %union.anon.0, i32, ptr, %union.anon.2, i16, i16, %struct.timeval }
%struct.event_callback = type { %struct.anon, i16, i8, i8, %union.anon, ptr }
%struct.anon = type { ptr, ptr }
%union.anon = type { ptr }
%union.anon.0 = type { %struct.anon.1 }
%struct.anon.1 = type { ptr, ptr }
%union.anon.2 = type { %struct.anon.3 }
%struct.anon.3 = type { %struct.anon.4, %struct.timeval }
%struct.anon.4 = type { ptr, ptr }
%struct.timeval = type { i64, i64 }
%struct.sockaddr_in6 = type { i16, i16, i32, %struct.in6_addr, i32 }
%struct.in6_addr = type { %union.anon.7 }
%union.anon.7 = type { [4 x i32] }
%struct.anon.8 = type { ptr, i64, i64 }
%union.protocol_binary_request_header = type { %struct.anon.9 }
%struct.anon.9 = type { i8, i8, i16, i8, i8, i16, i32, i32, i64 }
%struct.token_s = type { ptr, i64 }

@settings = external global %struct.settings, align 8
@.str.15 = private unnamed_addr constant [6 x i8] c"ERROR\00", align 1
@.str.85 = private unnamed_addr constant [8 x i8] c"noreply\00", align 1
@.str.98 = private unnamed_addr constant [3 x i8] c"OK\00", align 1
@.str.166 = private unnamed_addr constant [5 x i8] c"tune\00", align 1
@.str.167 = private unnamed_addr constant [43 x i8] c"ERROR hot and warm pcts must not exceed 80\00", align 1
@.str.168 = private unnamed_addr constant [50 x i8] c"ERROR hot/warm age factors must be greater than 0\00", align 1
@.str.169 = private unnamed_addr constant [5 x i8] c"mode\00", align 1
@.str.170 = private unnamed_addr constant [5 x i8] c"flat\00", align 1
@.str.171 = private unnamed_addr constant [10 x i8] c"segmented\00", align 1
@.str.172 = private unnamed_addr constant [9 x i8] c"temp_ttl\00", align 1

; Function Attrs: inlinehint nounwind uwtable
define internal zeroext i1 @set_noreply_maybe(ptr noundef %0, ptr noundef %1, i64 noundef %2) #5 {
  %4 = alloca ptr, align 8
  %5 = alloca ptr, align 8
  %6 = alloca i64, align 8
  %7 = alloca i32, align 4
  store ptr %0, ptr %4, align 8, !tbaa !4
  store ptr %1, ptr %5, align 8, !tbaa !77
  store i64 %2, ptr %6, align 8, !tbaa !44
  call void @llvm.lifetime.start.p0(i64 4, ptr %7) #8
  %8 = load i64, ptr %6, align 8, !tbaa !44
  %9 = sub i64 %8, 2
  %10 = trunc i64 %9 to i32
  store i32 %10, ptr %7, align 4, !tbaa !30
  %11 = load ptr, ptr %5, align 8, !tbaa !77
  %12 = load i32, ptr %7, align 4, !tbaa !30
  %13 = sext i32 %12 to i64
  %14 = getelementptr inbounds %struct.token_s, ptr %11, i64 %13
  %15 = getelementptr inbounds nuw %struct.token_s, ptr %14, i32 0, i32 0
  %16 = load ptr, ptr %15, align 8, !tbaa !70
  %17 = icmp ne ptr %16, null
  br i1 %17, label %18, label %30

18:                                               ; preds = %3
  %19 = load ptr, ptr %5, align 8, !tbaa !77
  %20 = load i32, ptr %7, align 4, !tbaa !30
  %21 = sext i32 %20 to i64
  %22 = getelementptr inbounds %struct.token_s, ptr %19, i64 %21
  %23 = getelementptr inbounds nuw %struct.token_s, ptr %22, i32 0, i32 0
  %24 = load ptr, ptr %23, align 8, !tbaa !70
  %25 = call i32 @strcmp(ptr noundef %24, ptr noundef @.str.85) #9
  %26 = icmp eq i32 %25, 0
  br i1 %26, label %27, label %30

27:                                               ; preds = %18
  %28 = load ptr, ptr %4, align 8, !tbaa !4
  %29 = getelementptr inbounds nuw %struct.conn, ptr %28, i32 0, i32 35
  store i8 1, ptr %29, align 4, !tbaa !43
  br label %30

30:                                               ; preds = %27, %18, %3
  %31 = load ptr, ptr %4, align 8, !tbaa !4
  %32 = getelementptr inbounds nuw %struct.conn, ptr %31, i32 0, i32 35
  %33 = load i8, ptr %32, align 4, !tbaa !43, !range !40, !noundef !41
  %34 = trunc i8 %33 to i1
  call void @llvm.lifetime.end.p0(i64 4, ptr %7) #8
  ret i1 %34
}

; Function Attrs: nounwind uwtable
define internal void @process_lru_command(ptr noundef %0, ptr noundef %1, i64 noundef %2) #0 {
  %4 = alloca ptr, align 8
  %5 = alloca ptr, align 8
  %6 = alloca i64, align 8
  %7 = alloca i32, align 4
  %8 = alloca i32, align 4
  %9 = alloca double, align 8
  %10 = alloca i32, align 4
  %11 = alloca double, align 8
  store ptr %0, ptr %4, align 8, !tbaa !4
  store ptr %1, ptr %5, align 8, !tbaa !77
  store i64 %2, ptr %6, align 8, !tbaa !44
  call void @llvm.lifetime.start.p0(i64 4, ptr %7) #8
  call void @llvm.lifetime.start.p0(i64 4, ptr %8) #8
  call void @llvm.lifetime.start.p0(i64 8, ptr %9) #8
  call void @llvm.lifetime.start.p0(i64 4, ptr %10) #8
  call void @llvm.lifetime.start.p0(i64 8, ptr %11) #8
  %12 = load ptr, ptr %4, align 8, !tbaa !4
  %13 = load ptr, ptr %5, align 8, !tbaa !77
  %14 = load i64, ptr %6, align 8, !tbaa !44
  %15 = call zeroext i1 @set_noreply_maybe(ptr noundef %12, ptr noundef %13, i64 noundef %14)
  %16 = load ptr, ptr %5, align 8, !tbaa !77
  %17 = getelementptr inbounds %struct.token_s, ptr %16, i64 1
  %18 = getelementptr inbounds nuw %struct.token_s, ptr %17, i32 0, i32 0
  %19 = load ptr, ptr %18, align 8, !tbaa !70
  %20 = call i32 @strcmp(ptr noundef %19, ptr noundef @.str.166) #9
  %21 = icmp eq i32 %20, 0
  br i1 %21, label %22, label %75

22:                                               ; preds = %3
  %23 = load i64, ptr %6, align 8, !tbaa !44
  %24 = icmp uge i64 %23, 7
  br i1 %24, label %25, label %75

25:                                               ; preds = %22
  %26 = load ptr, ptr %5, align 8, !tbaa !77
  %27 = getelementptr inbounds %struct.token_s, ptr %26, i64 2
  %28 = getelementptr inbounds nuw %struct.token_s, ptr %27, i32 0, i32 0
  %29 = load ptr, ptr %28, align 8, !tbaa !70
  %30 = call zeroext i1 @safe_strtoul(ptr noundef %29, ptr noundef %7)
  br i1 %30, label %31, label %49

31:                                               ; preds = %25
  %32 = load ptr, ptr %5, align 8, !tbaa !77
  %33 = getelementptr inbounds %struct.token_s, ptr %32, i64 3
  %34 = getelementptr inbounds nuw %struct.token_s, ptr %33, i32 0, i32 0
  %35 = load ptr, ptr %34, align 8, !tbaa !70
  %36 = call zeroext i1 @safe_strtoul(ptr noundef %35, ptr noundef %8)
  br i1 %36, label %37, label %49

37:                                               ; preds = %31
  %38 = load ptr, ptr %5, align 8, !tbaa !77
  %39 = getelementptr inbounds %struct.token_s, ptr %38, i64 4
  %40 = getelementptr inbounds nuw %struct.token_s, ptr %39, i32 0, i32 0
  %41 = load ptr, ptr %40, align 8, !tbaa !70
  %42 = call zeroext i1 @safe_strtod(ptr noundef %41, ptr noundef %9)
  br i1 %42, label %43, label %49

43:                                               ; preds = %37
  %44 = load ptr, ptr %5, align 8, !tbaa !77
  %45 = getelementptr inbounds %struct.token_s, ptr %44, i64 5
  %46 = getelementptr inbounds nuw %struct.token_s, ptr %45, i32 0, i32 0
  %47 = load ptr, ptr %46, align 8, !tbaa !70
  %48 = call zeroext i1 @safe_strtod(ptr noundef %47, ptr noundef %11)
  br i1 %48, label %51, label %49

49:                                               ; preds = %43, %37, %31, %25
  %50 = load ptr, ptr %4, align 8, !tbaa !4
  call void @out_string(ptr noundef %50, ptr noundef @.str.15)
  br label %74

51:                                               ; preds = %43
  %52 = load i32, ptr %7, align 4, !tbaa !30
  %53 = load i32, ptr %8, align 4, !tbaa !30
  %54 = add i32 %52, %53
  %55 = icmp ugt i32 %54, 80
  br i1 %55, label %56, label %58

56:                                               ; preds = %51
  %57 = load ptr, ptr %4, align 8, !tbaa !4
  call void @out_string(ptr noundef %57, ptr noundef @.str.167)
  br label %73

58:                                               ; preds = %51
  %59 = load double, ptr %11, align 8, !tbaa !148
  %60 = fcmp ole double %59, 0.000000e+00
  br i1 %60, label %64, label %61

61:                                               ; preds = %58
  %62 = load double, ptr %9, align 8, !tbaa !148
  %63 = fcmp ole double %62, 0.000000e+00
  br i1 %63, label %64, label %66

64:                                               ; preds = %61, %58
  %65 = load ptr, ptr %4, align 8, !tbaa !4
  call void @out_string(ptr noundef %65, ptr noundef @.str.168)
  br label %72

66:                                               ; preds = %61
  %67 = load i32, ptr %7, align 4, !tbaa !30
  store i32 %67, ptr getelementptr inbounds nuw (%struct.settings, ptr @settings, i32 0, i32 45), align 8, !tbaa !149
  %68 = load i32, ptr %8, align 4, !tbaa !30
  store i32 %68, ptr getelementptr inbounds nuw (%struct.settings, ptr @settings, i32 0, i32 46), align 4, !tbaa !150
  %69 = load double, ptr %9, align 8, !tbaa !148
  store double %69, ptr getelementptr inbounds nuw (%struct.settings, ptr @settings, i32 0, i32 47), align 8, !tbaa !151
  %70 = load double, ptr %11, align 8, !tbaa !148
  store double %70, ptr getelementptr inbounds nuw (%struct.settings, ptr @settings, i32 0, i32 48), align 8, !tbaa !152
  %71 = load ptr, ptr %4, align 8, !tbaa !4
  call void @out_string(ptr noundef %71, ptr noundef @.str.98)
  br label %72

72:                                               ; preds = %66, %64
  br label %73

73:                                               ; preds = %72, %56
  br label %74

74:                                               ; preds = %73, %49
  br label %144

75:                                               ; preds = %22, %3
  %76 = load ptr, ptr %5, align 8, !tbaa !77
  %77 = getelementptr inbounds %struct.token_s, ptr %76, i64 1
  %78 = getelementptr inbounds nuw %struct.token_s, ptr %77, i32 0, i32 0
  %79 = load ptr, ptr %78, align 8, !tbaa !70
  %80 = call i32 @strcmp(ptr noundef %79, ptr noundef @.str.169) #9
  %81 = icmp eq i32 %80, 0
  br i1 %81, label %82, label %110

82:                                               ; preds = %75
  %83 = load i64, ptr %6, align 8, !tbaa !44
  %84 = icmp uge i64 %83, 4
  br i1 %84, label %85, label %110

85:                                               ; preds = %82
  %86 = load i8, ptr getelementptr inbounds nuw (%struct.settings, ptr @settings, i32 0, i32 28), align 1, !tbaa !153, !range !40, !noundef !41
  %87 = trunc i8 %86 to i1
  br i1 %87, label %88, label %110

88:                                               ; preds = %85
  %89 = load ptr, ptr %5, align 8, !tbaa !77
  %90 = getelementptr inbounds %struct.token_s, ptr %89, i64 2
  %91 = getelementptr inbounds nuw %struct.token_s, ptr %90, i32 0, i32 0
  %92 = load ptr, ptr %91, align 8, !tbaa !70
  %93 = call i32 @strcmp(ptr noundef %92, ptr noundef @.str.170) #9
  %94 = icmp eq i32 %93, 0
  br i1 %94, label %95, label %97

95:                                               ; preds = %88
  store i8 0, ptr getelementptr inbounds nuw (%struct.settings, ptr @settings, i32 0, i32 29), align 8, !tbaa !154
  %96 = load ptr, ptr %4, align 8, !tbaa !4
  call void @out_string(ptr noundef %96, ptr noundef @.str.98)
  br label %109

97:                                               ; preds = %88
  %98 = load ptr, ptr %5, align 8, !tbaa !77
  %99 = getelementptr inbounds %struct.token_s, ptr %98, i64 2
  %100 = getelementptr inbounds nuw %struct.token_s, ptr %99, i32 0, i32 0
  %101 = load ptr, ptr %100, align 8, !tbaa !70
  %102 = call i32 @strcmp(ptr noundef %101, ptr noundef @.str.171) #9
  %103 = icmp eq i32 %102, 0
  br i1 %103, label %104, label %106

104:                                              ; preds = %97
  store i8 1, ptr getelementptr inbounds nuw (%struct.settings, ptr @settings, i32 0, i32 29), align 8, !tbaa !154
  %105 = load ptr, ptr %4, align 8, !tbaa !4
  call void @out_string(ptr noundef %105, ptr noundef @.str.98)
  br label %108

106:                                              ; preds = %97
  %107 = load ptr, ptr %4, align 8, !tbaa !4
  call void @out_string(ptr noundef %107, ptr noundef @.str.15)
  br label %108

108:                                              ; preds = %106, %104
  br label %109

109:                                              ; preds = %108, %95
  br label %143

110:                                              ; preds = %85, %82, %75
  %111 = load ptr, ptr %5, align 8, !tbaa !77
  %112 = getelementptr inbounds %struct.token_s, ptr %111, i64 1
  %113 = getelementptr inbounds nuw %struct.token_s, ptr %112, i32 0, i32 0
  %114 = load ptr, ptr %113, align 8, !tbaa !70
  %115 = call i32 @strcmp(ptr noundef %114, ptr noundef @.str.172) #9
  %116 = icmp eq i32 %115, 0
  br i1 %116, label %117, label %140

117:                                              ; preds = %110
  %118 = load i64, ptr %6, align 8, !tbaa !44
  %119 = icmp uge i64 %118, 4
  br i1 %119, label %120, label %140

120:                                              ; preds = %117
  %121 = load i8, ptr getelementptr inbounds nuw (%struct.settings, ptr @settings, i32 0, i32 28), align 1, !tbaa !153, !range !40, !noundef !41
  %122 = trunc i8 %121 to i1
  br i1 %122, label %123, label %140

123:                                              ; preds = %120
  %124 = load ptr, ptr %5, align 8, !tbaa !77
  %125 = getelementptr inbounds %struct.token_s, ptr %124, i64 2
  %126 = getelementptr inbounds nuw %struct.token_s, ptr %125, i32 0, i32 0
  %127 = load ptr, ptr %126, align 8, !tbaa !70
  %128 = call zeroext i1 @safe_strtol(ptr noundef %127, ptr noundef %10)
  br i1 %128, label %131, label %129

129:                                              ; preds = %123
  %130 = load ptr, ptr %4, align 8, !tbaa !4
  call void @out_string(ptr noundef %130, ptr noundef @.str.15)
  br label %139

131:                                              ; preds = %123
  %132 = load i32, ptr %10, align 4, !tbaa !30
  %133 = icmp slt i32 %132, 0
  br i1 %133, label %134, label %135

134:                                              ; preds = %131
  store i8 0, ptr getelementptr inbounds nuw (%struct.settings, ptr @settings, i32 0, i32 50), align 4, !tbaa !155
  br label %137

135:                                              ; preds = %131
  store i8 1, ptr getelementptr inbounds nuw (%struct.settings, ptr @settings, i32 0, i32 50), align 4, !tbaa !155
  %136 = load i32, ptr %10, align 4, !tbaa !30
  store i32 %136, ptr getelementptr inbounds nuw (%struct.settings, ptr @settings, i32 0, i32 51), align 8, !tbaa !156
  br label %137

137:                                              ; preds = %135, %134
  %138 = load ptr, ptr %4, align 8, !tbaa !4
  call void @out_string(ptr noundef %138, ptr noundef @.str.98)
  br label %139

139:                                              ; preds = %137, %129
  br label %142

140:                                              ; preds = %120, %117, %110
  %141 = load ptr, ptr %4, align 8, !tbaa !4
  call void @out_string(ptr noundef %141, ptr noundef @.str.15)
  br label %142

142:                                              ; preds = %140, %139
  br label %143

143:                                              ; preds = %142, %109
  br label %144

144:                                              ; preds = %143, %74
  call void @llvm.lifetime.end.p0(i64 8, ptr %11) #8
  call void @llvm.lifetime.end.p0(i64 4, ptr %10) #8
  call void @llvm.lifetime.end.p0(i64 8, ptr %9) #8
  call void @llvm.lifetime.end.p0(i64 4, ptr %8) #8
  call void @llvm.lifetime.end.p0(i64 4, ptr %7) #8
  ret void
}