; Function Attrs: nounwind uwtable
define internal fastcc void @process_lru_command(ptr noundef %0, ptr noundef nonnull readonly captures(none) %1, i64 noundef range(i64 3, 0) %2) unnamed_addr #0 {
  %4 = alloca i32, align 4
  %5 = alloca i32, align 4
  %6 = alloca double, align 8
  %7 = alloca i32, align 4
  %8 = alloca double, align 8
  call void @llvm.lifetime.start.p0(i64 4, ptr nonnull %4) #13
  call void @llvm.lifetime.start.p0(i64 4, ptr nonnull %5) #13
  call void @llvm.lifetime.start.p0(i64 8, ptr nonnull %6) #13
  call void @llvm.lifetime.start.p0(i64 4, ptr nonnull %7) #13
  call void @llvm.lifetime.start.p0(i64 8, ptr nonnull %8) #13
  %9 = shl i64 %2, 32
  %sext.i = add i64 %9, -8589934592
  %10 = ashr exact i64 %sext.i, 28
  %11 = getelementptr inbounds i8, ptr %1, i64 %10
  %12 = load ptr, ptr %11, align 8, !tbaa !66
  %.not.i = icmp eq ptr %12, null
  br i1 %.not.i, label %set_noreply_maybe.exit, label %13

13:                                               ; preds = %3
  %14 = tail call i32 @strcmp(ptr noundef nonnull dereferenceable(1) %12, ptr noundef nonnull dereferenceable(8) @.str.85) #14
  %15 = icmp eq i32 %14, 0
  br i1 %15, label %16, label %set_noreply_maybe.exit

16:                                               ; preds = %13
  %17 = getelementptr inbounds nuw i8, ptr %0, i64 308
  store i8 1, ptr %17, align 4, !tbaa !39
  br label %set_noreply_maybe.exit

set_noreply_maybe.exit:                           ; preds = %3, %13, %16
  %18 = getelementptr inbounds nuw i8, ptr %1, i64 16
  %19 = load ptr, ptr %18, align 8, !tbaa !66
  %20 = tail call i32 @strcmp(ptr noundef nonnull dereferenceable(1) %19, ptr noundef nonnull dereferenceable(5) @.str.166) #14
  %21 = icmp eq i32 %20, 0
  %22 = icmp ugt i64 %2, 6
  %or.cond = and i1 %22, %21
  br i1 %or.cond, label %23, label %53

23:                                               ; preds = %set_noreply_maybe.exit
  %24 = getelementptr inbounds nuw i8, ptr %1, i64 32
  %25 = load ptr, ptr %24, align 8, !tbaa !66
  %26 = call zeroext i1 @safe_strtoul(ptr noundef %25, ptr noundef nonnull %4) #13
  br i1 %26, label %27, label %39

27:                                               ; preds = %23
  %28 = getelementptr inbounds nuw i8, ptr %1, i64 48
  %29 = load ptr, ptr %28, align 8, !tbaa !66
  %30 = call zeroext i1 @safe_strtoul(ptr noundef %29, ptr noundef nonnull %5) #13
  br i1 %30, label %31, label %39

31:                                               ; preds = %27
  %32 = getelementptr inbounds nuw i8, ptr %1, i64 64
  %33 = load ptr, ptr %32, align 8, !tbaa !66
  %34 = call zeroext i1 @safe_strtod(ptr noundef %33, ptr noundef nonnull %6) #13
  br i1 %34, label %35, label %39

35:                                               ; preds = %31
  %36 = getelementptr inbounds nuw i8, ptr %1, i64 80
  %37 = load ptr, ptr %36, align 8, !tbaa !66
  %38 = call zeroext i1 @safe_strtod(ptr noundef %37, ptr noundef nonnull %8) #13
  br i1 %38, label %40, label %39

39:                                               ; preds = %35, %31, %27, %23
  call void @out_string(ptr noundef nonnull %0, ptr noundef nonnull @.str.15) #13
  br label %88

40:                                               ; preds = %35
  %41 = load i32, ptr %4, align 4, !tbaa !27
  %42 = load i32, ptr %5, align 4, !tbaa !27
  %43 = add i32 %42, %41
  %44 = icmp ugt i32 %43, 80
  br i1 %44, label %45, label %46

45:                                               ; preds = %40
  call void @out_string(ptr noundef nonnull %0, ptr noundef nonnull @.str.167) #13
  br label %88

46:                                               ; preds = %40
  %47 = load double, ptr %8, align 8, !tbaa !127
  %48 = fcmp ole double %47, 0.000000e+00
  %49 = load double, ptr %6, align 8
  %50 = fcmp ole double %49, 0.000000e+00
  %or.cond3 = select i1 %48, i1 true, i1 %50
  br i1 %or.cond3, label %51, label %52

51:                                               ; preds = %46
  call void @out_string(ptr noundef nonnull %0, ptr noundef nonnull @.str.168) #13
  br label %88

52:                                               ; preds = %46
  store i32 %41, ptr getelementptr inbounds nuw (i8, ptr @settings, i64 208), align 8, !tbaa !142
  store i32 %42, ptr getelementptr inbounds nuw (i8, ptr @settings, i64 212), align 4, !tbaa !143
  store double %49, ptr getelementptr inbounds nuw (i8, ptr @settings, i64 216), align 8, !tbaa !144
  store double %47, ptr getelementptr inbounds nuw (i8, ptr @settings, i64 224), align 8, !tbaa !145
  call void @out_string(ptr noundef nonnull %0, ptr noundef nonnull @.str.98) #13
  br label %88

53:                                               ; preds = %set_noreply_maybe.exit
  %54 = tail call i32 @strcmp(ptr noundef nonnull dereferenceable(1) %19, ptr noundef nonnull dereferenceable(5) @.str.169) #14
  %55 = icmp eq i32 %54, 0
  %56 = icmp ugt i64 %2, 3
  %or.cond5 = and i1 %56, %55
  br i1 %or.cond5, label %57, label %71

57:                                               ; preds = %53
  %58 = load i8, ptr getelementptr inbounds nuw (i8, ptr @settings, i64 135), align 1, !tbaa !146, !range !37, !noundef !38
  %59 = trunc nuw i8 %58 to i1
  br i1 %59, label %60, label %71

60:                                               ; preds = %57
  %61 = getelementptr inbounds nuw i8, ptr %1, i64 32
  %62 = load ptr, ptr %61, align 8, !tbaa !66
  %63 = tail call i32 @strcmp(ptr noundef nonnull dereferenceable(1) %62, ptr noundef nonnull dereferenceable(5) @.str.170) #14
  %64 = icmp eq i32 %63, 0
  br i1 %64, label %65, label %66

65:                                               ; preds = %60
  store i8 0, ptr getelementptr inbounds nuw (i8, ptr @settings, i64 136), align 8, !tbaa !147
  tail call void @out_string(ptr noundef nonnull %0, ptr noundef nonnull @.str.98) #13
  br label %88

66:                                               ; preds = %60
  %67 = tail call i32 @strcmp(ptr noundef nonnull dereferenceable(1) %62, ptr noundef nonnull dereferenceable(10) @.str.171) #14
  %68 = icmp eq i32 %67, 0
  br i1 %68, label %69, label %70

69:                                               ; preds = %66
  store i8 1, ptr getelementptr inbounds nuw (i8, ptr @settings, i64 136), align 8, !tbaa !147
  tail call void @out_string(ptr noundef nonnull %0, ptr noundef nonnull @.str.98) #13
  br label %88

70:                                               ; preds = %66
  tail call void @out_string(ptr noundef nonnull %0, ptr noundef nonnull @.str.15) #13
  br label %88

71:                                               ; preds = %57, %53
  %72 = tail call i32 @strcmp(ptr noundef nonnull dereferenceable(1) %19, ptr noundef nonnull dereferenceable(9) @.str.172) #14
  %73 = icmp eq i32 %72, 0
  %or.cond7 = and i1 %56, %73
  br i1 %or.cond7, label %74, label %87

74:                                               ; preds = %71
  %75 = load i8, ptr getelementptr inbounds nuw (i8, ptr @settings, i64 135), align 1, !tbaa !146, !range !37, !noundef !38
  %76 = trunc nuw i8 %75 to i1
  br i1 %76, label %77, label %87

77:                                               ; preds = %74
  %78 = getelementptr inbounds nuw i8, ptr %1, i64 32
  %79 = load ptr, ptr %78, align 8, !tbaa !66
  %80 = call zeroext i1 @safe_strtol(ptr noundef %79, ptr noundef nonnull %7) #13
  br i1 %80, label %82, label %81

81:                                               ; preds = %77
  call void @out_string(ptr noundef nonnull %0, ptr noundef nonnull @.str.15) #13
  br label %88

82:                                               ; preds = %77
  %83 = load i32, ptr %7, align 4, !tbaa !27
  %84 = icmp slt i32 %83, 0
  br i1 %84, label %86, label %85

85:                                               ; preds = %82
  store i32 %83, ptr getelementptr inbounds nuw (i8, ptr @settings, i64 240), align 8, !tbaa !148
  br label %86

86:                                               ; preds = %82, %85
  %.sink = phi i8 [ 1, %85 ], [ 0, %82 ]
  store i8 %.sink, ptr getelementptr inbounds nuw (i8, ptr @settings, i64 236), align 4, !tbaa !149
  call void @out_string(ptr noundef nonnull %0, ptr noundef nonnull @.str.98) #13
  br label %88

87:                                               ; preds = %74, %71
  tail call void @out_string(ptr noundef nonnull %0, ptr noundef nonnull @.str.15) #13
  br label %88

88:                                               ; preds = %69, %70, %65, %81, %86, %87, %39, %51, %52, %45
  call void @llvm.lifetime.end.p0(i64 8, ptr nonnull %8) #13
  call void @llvm.lifetime.end.p0(i64 4, ptr nonnull %7) #13
  call void @llvm.lifetime.end.p0(i64 8, ptr nonnull %6) #13
  call void @llvm.lifetime.end.p0(i64 4, ptr nonnull %5) #13
  call void @llvm.lifetime.end.p0(i64 4, ptr nonnull %4) #13
  ret void
}